#include <math.h>
#include <stdio.h>
#include <stdlib.h>
#include <string.h>

int main(){
	int l1,l2,i,c;
	double n,m;
	c=0;
	char f[500],s[500];
	scanf("%lf",&n);
	scanf("%s",f);
	scanf("%s",s);
	l1=strlen(f);
	l2=strlen(s);
	if(l1!=l2){ 
		printf("error");
		return 0;
	}
	for(i=0;i<l1;i++){
		if(f[i]!='A'&&f[i]!='G'&&f[i]!='C'&&f[i]!='T'){ 
			printf("error");
			return 0;
		}
	}
	for(i=0;i<l2;i++){
		if(s[i]!='A'&&s[i]!='G'&&s[i]!='C'&&s[i]!='T'){
			printf("error");
			return 0;
		}
	}

	for(i=0;i<l2;i++){
		if(s[i]==f[i]) c++;
	}

m=1.0*c/l1;
if(m>=n) printf("yes");
if(m<n) printf("no");
	return 0;
}